target datalayout = "e-m:e-p270:32:32-p271:32:32-p272:64:64-i64:64-i128:128-f80:128-n8:16:32:64-S128"
target triple = "x86_64-pc-linux-gnu"

%struct.ps_prochandle = type { ptr, i32, i32, ptr, ptr, i32, ptr, ptr }
%struct.lib_info = type { [4352 x i8], i64, i64, i64, i64, %struct.eh_frame_info, ptr, i32, ptr }
%struct.eh_frame_info = type { i64, i64, ptr, i32 }

@.str.11 = private unnamed_addr constant [43 x i8] c"lookup failed for symbol '%s' in obj '%s'\0A\00", align 1

; Function Attrs: nounwind uwtable
define hidden i64 @lookup_symbol(ptr noundef %0, ptr noundef %1, ptr noundef %2) #0 {
  %4 = alloca i64, align 8
  %5 = alloca ptr, align 8
  %6 = alloca ptr, align 8
  %7 = alloca ptr, align 8
  %8 = alloca ptr, align 8
  %9 = alloca i64, align 8
  store ptr %0, ptr %5, align 8
  store ptr %1, ptr %6, align 8
  store ptr %2, ptr %7, align 8
  %10 = load ptr, ptr %5, align 8
  %11 = getelementptr inbounds %struct.ps_prochandle, ptr %10, i32 0, i32 3
  %12 = load ptr, ptr %11, align 8
  store ptr %12, ptr %8, align 8
  br label %13

13:                                               ; preds = %35, %3
  %14 = load ptr, ptr %8, align 8
  %15 = icmp ne ptr %14, null
  br i1 %15, label %16, label %39

16:                                               ; preds = %13
  %17 = load ptr, ptr %8, align 8
  %18 = getelementptr inbounds %struct.lib_info, ptr %17, i32 0, i32 6
  %19 = load ptr, ptr %18, align 8
  %20 = icmp ne ptr %19, null
  br i1 %20, label %21, label %35

21:                                               ; preds = %16
  %22 = load ptr, ptr %8, align 8
  %23 = getelementptr inbounds %struct.lib_info, ptr %22, i32 0, i32 6
  %24 = load ptr, ptr %23, align 8
  %25 = load ptr, ptr %8, align 8
  %26 = getelementptr inbounds %struct.lib_info, ptr %25, i32 0, i32 1
  %27 = load i64, ptr %26, align 8
  %28 = load ptr, ptr %7, align 8
  %29 = call i64 @search_symbol(ptr noundef %24, i64 noundef %27, ptr noundef %28, ptr noundef null)
  store i64 %29, ptr %9, align 8
  %30 = load i64, ptr %9, align 8
  %31 = icmp ne i64 %30, 0
  br i1 %31, label %32, label %34

32:                                               ; preds = %21
  %33 = load i64, ptr %9, align 8
  store i64 %33, ptr %4, align 8
  br label %42

34:                                               ; preds = %21
  br label %35

35:                                               ; preds = %34, %16
  %36 = load ptr, ptr %8, align 8
  %37 = getelementptr inbounds %struct.lib_info, ptr %36, i32 0, i32 8
  %38 = load ptr, ptr %37, align 8
  store ptr %38, ptr %8, align 8
  br label %13, !llvm.loop !11

39:                                               ; preds = %13
  %40 = load ptr, ptr %7, align 8
  %41 = load ptr, ptr %6, align 8
  call void (ptr, ...) @print_debug(ptr noundef @.str.11, ptr noundef %40, ptr noundef %41)
  store i64 0, ptr %4, align 8
  br label %42

42:                                               ; preds = %39, %32
  %43 = load i64, ptr %4, align 8
  ret i64 %43
}