; Function Attrs: nounwind uwtable
define hidden i64 @lookup_symbol(ptr nocapture noundef readonly %0, ptr noundef %1, ptr noundef %2) local_unnamed_addr #9 {
  %4 = getelementptr inbounds i8, ptr %0, i64 16
  %.01116 = load ptr, ptr %4, align 8
  %.not17 = icmp eq ptr %.01116, null
  br i1 %.not17, label %._crit_edge, label %.lr.ph

.lr.ph:                                           ; preds = %3, %11
  %.01118 = phi ptr [ %.011, %11 ], [ %.01116, %3 ]
  %5 = getelementptr inbounds i8, ptr %.01118, i64 4416
  %6 = load ptr, ptr %5, align 8
  %.not14 = icmp eq ptr %6, null
  br i1 %.not14, label %11, label %7

7:                                                ; preds = %.lr.ph
  %8 = getelementptr inbounds i8, ptr %.01118, i64 4352
  %9 = load i64, ptr %8, align 8
  %10 = tail call i64 @search_symbol(ptr noundef nonnull %6, i64 noundef %9, ptr noundef %2, ptr noundef null) #21
  %.not15 = icmp eq i64 %10, 0
  br i1 %.not15, label %11, label %.loopexit

11:                                               ; preds = %7, %.lr.ph
  %12 = getelementptr inbounds i8, ptr %.01118, i64 4432
  %.011 = load ptr, ptr %12, align 8
  %.not = icmp eq ptr %.011, null
  br i1 %.not, label %._crit_edge, label %.lr.ph, !llvm.loop !11

._crit_edge:                                      ; preds = %11, %3
  tail call void (ptr, ...) @print_debug(ptr noundef nonnull @.str.11, ptr noundef %2, ptr noundef %1)
  br label %.loopexit

.loopexit:                                        ; preds = %7, %._crit_edge
  %.0 = phi i64 [ 0, %._crit_edge ], [ %10, %7 ]
  ret i64 %.0
}